target datalayout = "e-m:e-p270:32:32-p271:32:32-p272:64:64-i64:64-i128:128-f80:128-n8:16:32:64-S128"
target triple = "x86_64-pc-linux-gnu"

%class.CodeInstaller = type <{ %class.Arena, ptr, i32, %class.CodeOffsets, i32, i32, i32, i32, i32, i32, i8, i8, [2 x i8], i32, [4 x i8], ptr, ptr, ptr, ptr, ptr, ptr, %class.ExceptionHandlerTable, %class.ImplicitExceptionTable, i8, [7 x i8] }>
%class.Arena = type { i8, i8, i64, ptr, ptr, ptr, ptr }
%class.CodeOffsets = type { [8 x i32] }
%class.ExceptionHandlerTable = type <{ ptr, i32, i32, %class.ReallocMark, [7 x i8] }>
%class.ReallocMark = type { i8 }
%class.ImplicitExceptionTable = type <{ i32, i32, ptr, %class.ReallocMark, [7 x i8] }>
%class.CodeSection = type { ptr, ptr, ptr, ptr, ptr, ptr, ptr, ptr, i8, i8, i32, i8, ptr }
%class.RelocationHolder = type { [40 x i8] }
%class.OopRecorder = type { %class.ValueRecorder, %class.ValueRecorder.0, ptr }
%class.ValueRecorder = type <{ ptr, ptr, ptr, ptr, i8, [7 x i8] }>
%class.ValueRecorder.0 = type <{ ptr, ptr, ptr, ptr, i8, [7 x i8] }>
%class.Handle = type { ptr }
%class.oop_Relocation = type { %class.DataRelocation.base, i32 }
%class.DataRelocation.base = type { %class.Relocation.base }
%class.Relocation.base = type <{ ptr, ptr, i32 }>
%class.Relocation = type <{ ptr, ptr, i32, [4 x i8] }>

@JVMCITraceLevel = external global i64, align 8
@JVMCIEventLogLevel = external global i64, align 8
@.str.5 = private unnamed_addr constant [54 x i8] c"relocating (narrow oop constant) at 0x%016lx/0x%016lx\00", align 1
@.str.6 = private unnamed_addr constant [47 x i8] c"relocating (oop constant) at 0x%016lx/0x%016lx\00", align 1
@_ZTV14oop_Relocation = external unnamed_addr constant { [11 x ptr] }, align 8
@_ZTV10Relocation = external unnamed_addr constant { [11 x ptr] }, align 8

; Function Attrs: mustprogress nounwind uwtable
define linkonce_odr hidden void @_ZN10RelocationC2EN9relocInfo9relocTypeE(ptr noundef nonnull align 8 dereferenceable(20) %0, i32 noundef %1) unnamed_addr #1 comdat align 2 {
  %3 = alloca ptr, align 8
  %4 = alloca i32, align 4
  store ptr %0, ptr %3, align 8
  store i32 %1, ptr %4, align 4
  %5 = load ptr, ptr %3, align 8
  store ptr getelementptr inbounds inrange(-16, 72) ({ [11 x ptr] }, ptr @_ZTV10Relocation, i32 0, i32 0, i32 2), ptr %5, align 8
  %6 = getelementptr inbounds %class.Relocation, ptr %5, i32 0, i32 1
  store ptr null, ptr %6, align 8
  %7 = getelementptr inbounds %class.Relocation, ptr %5, i32 0, i32 2
  %8 = load i32, ptr %4, align 4
  store i32 %8, ptr %7, align 8
  ret void
}

; Function Attrs: mustprogress nounwind uwtable
define linkonce_odr hidden void @_ZN14DataRelocationC2EN9relocInfo9relocTypeE(ptr noundef nonnull align 8 dereferenceable(20) %0, i32 noundef %1) unnamed_addr #1 comdat align 2 {
  %3 = alloca ptr, align 8
  %4 = alloca i32, align 4
  store ptr %0, ptr %3, align 8
  store i32 %1, ptr %4, align 4
  %5 = load ptr, ptr %3, align 8
  %6 = load i32, ptr %4, align 4
  call void @_ZN10RelocationC2EN9relocInfo9relocTypeE(ptr noundef nonnull align 8 dereferenceable(20) %5, i32 noundef %6)
  store ptr getelementptr inbounds inrange(-16, 72) ({ [11 x ptr] }, ptr @_ZTV14DataRelocation, i32 0, i32 0, i32 2), ptr %5, align 8
  ret void
}

; Function Attrs: mustprogress nounwind uwtable
define linkonce_odr hidden void @_ZN14oop_RelocationC2Ei(ptr noundef nonnull align 8 dereferenceable(24) %0, i32 noundef %1) unnamed_addr #1 comdat align 2 {
  %3 = alloca ptr, align 8
  %4 = alloca i32, align 4
  store ptr %0, ptr %3, align 8
  store i32 %1, ptr %4, align 4
  %5 = load ptr, ptr %3, align 8
  call void @_ZN14DataRelocationC2EN9relocInfo9relocTypeE(ptr noundef nonnull align 8 dereferenceable(20) %5, i32 noundef 1)
  store ptr getelementptr inbounds inrange(-16, 72) ({ [11 x ptr] }, ptr @_ZTV14oop_Relocation, i32 0, i32 0, i32 2), ptr %5, align 8
  %6 = getelementptr inbounds %class.oop_Relocation, ptr %5, i32 0, i32 1
  %7 = load i32, ptr %4, align 4
  store i32 %7, ptr %6, align 4
  ret void
}

; Function Attrs: mustprogress nounwind uwtable
define linkonce_odr hidden void @_ZN16RelocationHolder18emplace_relocationI14oop_RelocationJiEEEvDpRKT0_(ptr noundef nonnull align 8 dereferenceable(40) %0, ptr noundef nonnull align 4 dereferenceable(4) %1) #1 comdat align 2 {
  %3 = alloca ptr, align 8
  %4 = alloca ptr, align 8
  %5 = alloca ptr, align 8
  store ptr %0, ptr %3, align 8
  store ptr %1, ptr %4, align 8
  %6 = load ptr, ptr %3, align 8
  %7 = getelementptr inbounds %class.RelocationHolder, ptr %6, i32 0, i32 0
  %8 = getelementptr inbounds [40 x i8], ptr %7, i64 0, i64 0
  %9 = load ptr, ptr %4, align 8
  %10 = load i32, ptr %9, align 4
  call void @_ZN14oop_RelocationC2Ei(ptr noundef nonnull align 8 dereferenceable(24) %8, i32 noundef %10)
  store ptr %8, ptr %5, align 8
  ret void
}

; Function Attrs: mustprogress nounwind uwtable
define linkonce_odr hidden void @_ZN16RelocationHolderC2I14oop_RelocationJiEEENS_9ConstructIT_EEDpRKT0_(ptr noundef nonnull align 8 dereferenceable(40) %0, ptr noundef nonnull align 4 dereferenceable(4) %1) unnamed_addr #1 comdat align 2 {
  %3 = alloca ptr, align 8
  %4 = alloca ptr, align 8
  store ptr %0, ptr %3, align 8
  store ptr %1, ptr %4, align 8
  %5 = load ptr, ptr %3, align 8
  %6 = load ptr, ptr %4, align 8
  call void @_ZN16RelocationHolder18emplace_relocationI14oop_RelocationJiEEEvDpRKT0_(ptr noundef nonnull align 8 dereferenceable(40) %5, ptr noundef nonnull align 4 dereferenceable(4) %6)
  ret void
}

; Function Attrs: mustprogress nounwind uwtable
define linkonce_odr hidden void @_ZN16RelocationHolder9constructI14oop_RelocationJiEEES_DpRKT0_(ptr dead_on_unwind noalias writable sret(%class.RelocationHolder) align 8 %0, ptr noundef nonnull align 4 dereferenceable(4) %1) #1 comdat align 2 {
  %3 = alloca ptr, align 8
  %4 = alloca ptr, align 8
  store ptr %0, ptr %3, align 8
  store ptr %1, ptr %4, align 8
  %5 = load ptr, ptr %4, align 8
  call void @_ZN16RelocationHolderC2I14oop_RelocationJiEEENS_9ConstructIT_EEDpRKT0_(ptr noundef nonnull align 8 dereferenceable(40) %0, ptr noundef nonnull align 4 dereferenceable(4) %5)
  ret void
}

; Function Attrs: mustprogress nounwind uwtable
define linkonce_odr hidden noundef i32 @_ZN13ValueRecorderIP8_jobjectE10find_indexES1_(ptr noundef nonnull align 8 dereferenceable(33) %0, ptr noundef %1) #1 comdat align 2 {
  %3 = alloca ptr, align 8
  %4 = alloca ptr, align 8
  %5 = alloca i32, align 4
  store ptr %0, ptr %3, align 8
  store ptr %1, ptr %4, align 8
  %6 = load ptr, ptr %3, align 8
  %7 = load ptr, ptr %4, align 8
  %8 = call noundef i32 @_ZN13ValueRecorderIP8_jobjectE16maybe_find_indexES1_(ptr noundef nonnull align 8 dereferenceable(33) %6, ptr noundef %7)
  store i32 %8, ptr %5, align 4
  %9 = load i32, ptr %5, align 4
  %10 = icmp slt i32 %9, 0
  br i1 %10, label %11, label %14

11:                                               ; preds = %2
  %12 = load ptr, ptr %4, align 8
  %13 = call noundef i32 @_ZN13ValueRecorderIP8_jobjectE10add_handleES1_b(ptr noundef nonnull align 8 dereferenceable(33) %6, ptr noundef %12, i1 noundef zeroext true)
  store i32 %13, ptr %5, align 4
  br label %14

14:                                               ; preds = %11, %2
  %15 = load i32, ptr %5, align 4
  ret i32 %15
}

; Function Attrs: mustprogress nounwind uwtable
define linkonce_odr hidden noundef ptr @_ZNK6Handle3objEv(ptr noundef nonnull align 8 dereferenceable(8) %0) #1 comdat align 2 {
  %2 = alloca ptr, align 8
  store ptr %0, ptr %2, align 8
  %3 = load ptr, ptr %2, align 8
  %4 = getelementptr inbounds %class.Handle, ptr %3, i32 0, i32 0
  %5 = load ptr, ptr %4, align 8
  %6 = icmp eq ptr %5, null
  br i1 %6, label %7, label %8

7:                                                ; preds = %1
  br label %12

8:                                                ; preds = %1
  %9 = getelementptr inbounds %class.Handle, ptr %3, i32 0, i32 0
  %10 = load ptr, ptr %9, align 8
  %11 = load ptr, ptr %10, align 8
  br label %12

12:                                               ; preds = %8, %7
  %13 = phi ptr [ null, %7 ], [ %11, %8 ]
  ret ptr %13
}

; Function Attrs: mustprogress nounwind uwtable
define linkonce_odr hidden void @_ZN14oop_Relocation18spec_for_immediateEv(ptr dead_on_unwind noalias writable sret(%class.RelocationHolder) align 8 %0) #1 comdat align 2 {
  %2 = alloca ptr, align 8
  %3 = alloca i32, align 4
  store ptr %0, ptr %2, align 8
  store i32 0, ptr %3, align 4
  call void @_ZN16RelocationHolder9constructI14oop_RelocationJiEEES_DpRKT0_(ptr dead_on_unwind writable sret(%class.RelocationHolder) align 8 %0, ptr noundef nonnull align 4 dereferenceable(4) %3)
  ret void
}

; Function Attrs: mustprogress nounwind uwtable
define linkonce_odr hidden noundef i64 @_Z3p2iPVKv(ptr noundef %0) #1 comdat {
  %2 = alloca ptr, align 8
  store ptr %0, ptr %2, align 8
  %3 = load ptr, ptr %2, align 8
  %4 = ptrtoint ptr %3 to i64
  ret i64 %4
}

; Function Attrs: mustprogress nounwind uwtable
define linkonce_odr hidden void @_ZN14oop_Relocation4specEi(ptr dead_on_unwind noalias writable sret(%class.RelocationHolder) align 8 %0, i32 noundef %1) #1 comdat align 2 {
  %3 = alloca ptr, align 8
  %4 = alloca i32, align 4
  store ptr %0, ptr %3, align 8
  store i32 %1, ptr %4, align 4
  call void @_ZN16RelocationHolder9constructI14oop_RelocationJiEEES_DpRKT0_(ptr dead_on_unwind writable sret(%class.RelocationHolder) align 8 %0, ptr noundef nonnull align 4 dereferenceable(4) %4)
  ret void
}

; Function Attrs: mustprogress nounwind uwtable
define linkonce_odr hidden noundef i32 @_ZN11OopRecorder10find_indexEP8_jobject(ptr noundef nonnull align 8 dereferenceable(88) %0, ptr noundef %1) #1 comdat align 2 {
  %3 = alloca ptr, align 8
  %4 = alloca ptr, align 8
  store ptr %0, ptr %3, align 8
  store ptr %1, ptr %4, align 8
  %5 = load ptr, ptr %3, align 8
  %6 = getelementptr inbounds %class.OopRecorder, ptr %5, i32 0, i32 2
  %7 = load ptr, ptr %6, align 8
  %8 = icmp ne ptr %7, null
  br i1 %8, label %9, label %14

9:                                                ; preds = %2
  %10 = getelementptr inbounds %class.OopRecorder, ptr %5, i32 0, i32 2
  %11 = load ptr, ptr %10, align 8
  %12 = load ptr, ptr %4, align 8
  %13 = call noundef i32 @_ZN12ObjectLookup10find_indexEP8_jobjectP11OopRecorder(ptr noundef nonnull align 8 dereferenceable(28) %11, ptr noundef %12, ptr noundef %5)
  br label %18

14:                                               ; preds = %2
  %15 = getelementptr inbounds %class.OopRecorder, ptr %5, i32 0, i32 0
  %16 = load ptr, ptr %4, align 8
  %17 = call noundef i32 @_ZN13ValueRecorderIP8_jobjectE10find_indexES1_(ptr noundef nonnull align 8 dereferenceable(33) %15, ptr noundef %16)
  br label %18

18:                                               ; preds = %14, %9
  %19 = phi i32 [ %13, %9 ], [ %17, %14 ]
  ret i32 %19
}

; Function Attrs: mustprogress nounwind uwtable
define linkonce_odr hidden noundef ptr @_ZNK6HandleclEv(ptr noundef nonnull align 8 dereferenceable(8) %0) #1 comdat align 2 {
  %2 = alloca ptr, align 8
  store ptr %0, ptr %2, align 8
  %3 = load ptr, ptr %2, align 8
  %4 = call noundef ptr @_ZNK6Handle3objEv(ptr noundef nonnull align 8 dereferenceable(8) %3)
  ret ptr %4
}

; Function Attrs: mustprogress nounwind uwtable
define linkonce_odr hidden noundef ptr @_ZNK11CodeSection5startEv(ptr noundef nonnull align 8 dereferenceable(88) %0) #1 comdat align 2 {
  %2 = alloca ptr, align 8
  store ptr %0, ptr %2, align 8
  %3 = load ptr, ptr %2, align 8
  %4 = getelementptr inbounds %class.CodeSection, ptr %3, i32 0, i32 0
  %5 = load ptr, ptr %4, align 8
  ret ptr %5
}

; Function Attrs: mustprogress nounwind uwtable
define hidden void @_ZN13CodeInstaller20pd_patch_OopConstantEiR6HandlebP8JVMCIEnv(ptr noundef nonnull align 8 dereferenceable(225) %0, i32 noundef %1, ptr noundef nonnull align 8 dereferenceable(8) %2, i1 noundef zeroext %3, ptr noundef %4) #1 align 2 {
  %6 = alloca ptr, align 8
  %7 = alloca i32, align 4
  %8 = alloca ptr, align 8
  %9 = alloca i8, align 1
  %10 = alloca ptr, align 8
  %11 = alloca ptr, align 8
  %12 = alloca ptr, align 8
  %13 = alloca ptr, align 8
  %14 = alloca i32, align 4
  %15 = alloca %class.RelocationHolder, align 8
  %16 = alloca ptr, align 8
  %17 = alloca %class.RelocationHolder, align 8
  store ptr %0, ptr %6, align 8
  store i32 %1, ptr %7, align 4
  store ptr %2, ptr %8, align 8
  %18 = zext i1 %3 to i8
  store i8 %18, ptr %9, align 1
  store ptr %4, ptr %10, align 8
  %19 = load ptr, ptr %6, align 8
  %20 = getelementptr inbounds %class.CodeInstaller, ptr %19, i32 0, i32 16
  %21 = load ptr, ptr %20, align 8
  %22 = call noundef ptr @_ZNK11CodeSection5startEv(ptr noundef nonnull align 8 dereferenceable(88) %21)
  %23 = load i32, ptr %7, align 4
  %24 = sext i32 %23 to i64
  %25 = getelementptr inbounds i8, ptr %22, i64 %24
  store ptr %25, ptr %11, align 8
  %26 = load ptr, ptr %8, align 8
  %27 = call noundef ptr @_ZNK6HandleclEv(ptr noundef nonnull align 8 dereferenceable(8) %26)
  %28 = call noundef ptr @_ZN10JNIHandles10make_localEP7oopDesc(ptr noundef %27)
  store ptr %28, ptr %12, align 8
  %29 = load i8, ptr %9, align 1
  %30 = trunc i8 %29 to i1
  br i1 %30, label %31, label %54

31:                                               ; preds = %5
  %32 = load ptr, ptr %11, align 8
  %33 = call noundef ptr @_ZN9Assembler14locate_operandEPhNS_12WhichOperandE(ptr noundef %32, i32 noundef 3)
  store ptr %33, ptr %13, align 8
  %34 = getelementptr inbounds %class.CodeInstaller, ptr %19, i32 0, i32 18
  %35 = load ptr, ptr %34, align 8
  %36 = load ptr, ptr %12, align 8
  %37 = call noundef i32 @_ZN11OopRecorder10find_indexEP8_jobject(ptr noundef nonnull align 8 dereferenceable(88) %35, ptr noundef %36)
  store i32 %37, ptr %14, align 4
  %38 = getelementptr inbounds %class.CodeInstaller, ptr %19, i32 0, i32 16
  %39 = load ptr, ptr %38, align 8
  %40 = load ptr, ptr %11, align 8
  %41 = load i32, ptr %14, align 4
  call void @_ZN14oop_Relocation4specEi(ptr dead_on_unwind writable sret(%class.RelocationHolder) align 8 %15, i32 noundef %41)
  call void @_ZN11CodeSection8relocateEPhRK16RelocationHolderi(ptr noundef nonnull align 8 dereferenceable(88) %39, ptr noundef %40, ptr noundef nonnull align 8 dereferenceable(40) %15, i32 noundef 3)
  %42 = load i64, ptr @JVMCITraceLevel, align 8
  %43 = icmp slt i64 %42, 3
  br i1 %43, label %44, label %48

44:                                               ; preds = %31
  %45 = load i64, ptr @JVMCIEventLogLevel, align 8
  %46 = icmp slt i64 %45, 3
  br i1 %46, label %47, label %48

47:                                               ; preds = %44
  br label %53

48:                                               ; preds = %44, %31
  %49 = load ptr, ptr %11, align 8
  %50 = call noundef i64 @_Z3p2iPVKv(ptr noundef %49)
  %51 = load ptr, ptr %13, align 8
  %52 = call noundef i64 @_Z3p2iPVKv(ptr noundef %51)
  call void (ptr, ...) @_ZN5JVMCI6event3EPKcz(ptr noundef @.str.5, i64 noundef %50, i64 noundef %52)
  br label %53

53:                                               ; preds = %48, %47
  br label %74

54:                                               ; preds = %5
  %55 = load ptr, ptr %11, align 8
  %56 = call noundef ptr @_ZN9Assembler14locate_operandEPhNS_12WhichOperandE(ptr noundef %55, i32 noundef 0)
  store ptr %56, ptr %16, align 8
  %57 = load ptr, ptr %12, align 8
  %58 = load ptr, ptr %16, align 8
  store ptr %57, ptr %58, align 8
  %59 = getelementptr inbounds %class.CodeInstaller, ptr %19, i32 0, i32 16
  %60 = load ptr, ptr %59, align 8
  %61 = load ptr, ptr %11, align 8
  call void @_ZN14oop_Relocation18spec_for_immediateEv(ptr dead_on_unwind writable sret(%class.RelocationHolder) align 8 %17)
  call void @_ZN11CodeSection8relocateEPhRK16RelocationHolderi(ptr noundef nonnull align 8 dereferenceable(88) %60, ptr noundef %61, ptr noundef nonnull align 8 dereferenceable(40) %17, i32 noundef 0)
  %62 = load i64, ptr @JVMCITraceLevel, align 8
  %63 = icmp slt i64 %62, 3
  br i1 %63, label %64, label %68

64:                                               ; preds = %54
  %65 = load i64, ptr @JVMCIEventLogLevel, align 8
  %66 = icmp slt i64 %65, 3
  br i1 %66, label %67, label %68

67:                                               ; preds = %64
  br label %73

68:                                               ; preds = %64, %54
  %69 = load ptr, ptr %11, align 8
  %70 = call noundef i64 @_Z3p2iPVKv(ptr noundef %69)
  %71 = load ptr, ptr %16, align 8
  %72 = call noundef i64 @_Z3p2iPVKv(ptr noundef %71)
  call void (ptr, ...) @_ZN5JVMCI6event3EPKcz(ptr noundef @.str.6, i64 noundef %70, i64 noundef %72)
  br label %73

73:                                               ; preds = %68, %67
  br label %74

74:                                               ; preds = %73, %53
  ret void
}