; Function Attrs: mustprogress nounwind uwtable
define hidden void @_ZN13CodeInstaller20pd_patch_OopConstantEiR6HandlebP8JVMCIEnv(ptr nocapture noundef nonnull readonly align 8 dereferenceable(225) %0, i32 noundef %1, ptr nocapture noundef nonnull readonly align 8 dereferenceable(8) %2, i1 noundef zeroext %3, ptr nocapture noundef readnone %4) local_unnamed_addr #0 align 2 {
  %6 = alloca %class.RelocationHolder, align 8
  %7 = alloca %class.RelocationHolder, align 8
  %8 = getelementptr inbounds i8, ptr %0, i64 136
  %9 = load ptr, ptr %8, align 8
  %10 = load ptr, ptr %9, align 8
  %11 = sext i32 %1 to i64
  %12 = getelementptr inbounds i8, ptr %10, i64 %11
  %13 = load ptr, ptr %2, align 8
  %14 = icmp eq ptr %13, null
  br i1 %14, label %_ZNK6HandleclEv.exit, label %15

15:                                               ; preds = %5
  %16 = load ptr, ptr %13, align 8
  br label %_ZNK6HandleclEv.exit

_ZNK6HandleclEv.exit:                             ; preds = %5, %15
  %17 = phi ptr [ %16, %15 ], [ null, %5 ]
  %18 = tail call noundef ptr @_ZN10JNIHandles10make_localEP7oopDesc(ptr noundef %17) #5
  br i1 %3, label %19, label %41

19:                                               ; preds = %_ZNK6HandleclEv.exit
  %20 = tail call noundef ptr @_ZN9Assembler14locate_operandEPhNS_12WhichOperandE(ptr noundef %12, i32 noundef 3) #5
  %21 = getelementptr inbounds i8, ptr %0, i64 152
  %22 = load ptr, ptr %21, align 8
  %23 = getelementptr inbounds i8, ptr %22, i64 80
  %24 = load ptr, ptr %23, align 8
  %.not.i = icmp eq ptr %24, null
  br i1 %.not.i, label %27, label %25

25:                                               ; preds = %19
  %26 = tail call noundef i32 @_ZN12ObjectLookup10find_indexEP8_jobjectP11OopRecorder(ptr noundef nonnull align 8 dereferenceable(28) %24, ptr noundef %18, ptr noundef nonnull %22) #5
  br label %_ZN11OopRecorder10find_indexEP8_jobject.exit

27:                                               ; preds = %19
  %28 = tail call noundef i32 @_ZN13ValueRecorderIP8_jobjectE16maybe_find_indexES1_(ptr noundef nonnull align 8 dereferenceable(33) %22, ptr noundef %18) #5
  %29 = icmp slt i32 %28, 0
  br i1 %29, label %30, label %_ZN11OopRecorder10find_indexEP8_jobject.exit

30:                                               ; preds = %27
  %31 = tail call noundef i32 @_ZN13ValueRecorderIP8_jobjectE10add_handleES1_b(ptr noundef nonnull align 8 dereferenceable(33) %22, ptr noundef %18, i1 noundef zeroext true) #5
  br label %_ZN11OopRecorder10find_indexEP8_jobject.exit

_ZN11OopRecorder10find_indexEP8_jobject.exit:     ; preds = %25, %27, %30
  %32 = phi i32 [ %26, %25 ], [ %31, %30 ], [ %28, %27 ]
  %33 = load ptr, ptr %8, align 8
  %34 = getelementptr inbounds i8, ptr %6, i64 8
  store ptr null, ptr %34, align 8, !alias.scope !6
  %35 = getelementptr inbounds i8, ptr %6, i64 16
  store i32 1, ptr %35, align 8, !alias.scope !6
  store ptr getelementptr inbounds inrange(-16, 72) (i8, ptr @_ZTV14oop_Relocation, i64 16), ptr %6, align 8, !alias.scope !6
  %36 = getelementptr inbounds i8, ptr %6, i64 20
  store i32 %32, ptr %36, align 4, !alias.scope !6
  call void @_ZN11CodeSection8relocateEPhRK16RelocationHolderi(ptr noundef nonnull align 8 dereferenceable(88) %33, ptr noundef %12, ptr noundef nonnull align 8 dereferenceable(40) %6, i32 noundef 3) #5
  %37 = load i64, ptr @JVMCITraceLevel, align 8
  %38 = icmp slt i64 %37, 3
  %39 = load i64, ptr @JVMCIEventLogLevel, align 8
  %40 = icmp slt i64 %39, 3
  %or.cond = select i1 %38, i1 %40, i1 false
  br i1 %or.cond, label %53, label %.sink.split

41:                                               ; preds = %_ZNK6HandleclEv.exit
  %42 = tail call noundef ptr @_ZN9Assembler14locate_operandEPhNS_12WhichOperandE(ptr noundef %12, i32 noundef 0) #5
  store ptr %18, ptr %42, align 8
  %43 = load ptr, ptr %8, align 8
  %44 = getelementptr inbounds i8, ptr %7, i64 8
  store ptr null, ptr %44, align 8, !alias.scope !11
  %45 = getelementptr inbounds i8, ptr %7, i64 16
  store i32 1, ptr %45, align 8, !alias.scope !11
  store ptr getelementptr inbounds inrange(-16, 72) (i8, ptr @_ZTV14oop_Relocation, i64 16), ptr %7, align 8, !alias.scope !11
  %46 = getelementptr inbounds i8, ptr %7, i64 20
  store i32 0, ptr %46, align 4, !alias.scope !11
  call void @_ZN11CodeSection8relocateEPhRK16RelocationHolderi(ptr noundef nonnull align 8 dereferenceable(88) %43, ptr noundef %12, ptr noundef nonnull align 8 dereferenceable(40) %7, i32 noundef 0) #5
  %47 = load i64, ptr @JVMCITraceLevel, align 8
  %48 = icmp slt i64 %47, 3
  %49 = load i64, ptr @JVMCIEventLogLevel, align 8
  %50 = icmp slt i64 %49, 3
  %or.cond3 = select i1 %48, i1 %50, i1 false
  br i1 %or.cond3, label %53, label %.sink.split

.sink.split:                                      ; preds = %41, %_ZN11OopRecorder10find_indexEP8_jobject.exit
  %.sink19 = phi ptr [ %20, %_ZN11OopRecorder10find_indexEP8_jobject.exit ], [ %42, %41 ]
  %.str.6.sink = phi ptr [ @.str.5, %_ZN11OopRecorder10find_indexEP8_jobject.exit ], [ @.str.6, %41 ]
  %51 = ptrtoint ptr %12 to i64
  %52 = ptrtoint ptr %.sink19 to i64
  call void (ptr, ...) @_ZN5JVMCI6event3EPKcz(ptr noundef nonnull %.str.6.sink, i64 noundef %51, i64 noundef %52) #5
  br label %53

53:                                               ; preds = %.sink.split, %41, %_ZN11OopRecorder10find_indexEP8_jobject.exit
  ret void
}